; Function Attrs: mustprogress nounwind uwtable
define dso_local void @_ZN4llvm6MDNode6Header11resizeSmallEm(ptr noundef nonnull align 8 dereferenceable(12) %0, i64 noundef %1) local_unnamed_addr #0 align 2 {
  %3 = load i64, ptr %0, align 8
  %4 = and i64 %3, 2
  %.not.i = icmp eq i64 %4, 0
  br i1 %.not.i, label %9, label %5

5:                                                ; preds = %2
  %6 = getelementptr inbounds i8, ptr %0, i64 -16
  %7 = load ptr, ptr %6, align 8
  %8 = tail call noundef i64 @_ZNK4llvm15SmallVectorBaseIjE4sizeEv(ptr noundef nonnull align 8 dereferenceable(16) %6) #23
  br label %_ZN4llvm6MDNode6Header8operandsEv.exit

9:                                                ; preds = %2
  %10 = lshr i64 %3, 2
  %11 = and i64 %10, 15
  %12 = sub nsw i64 0, %11
  %13 = getelementptr inbounds %"class.llvm::MDOperand", ptr %0, i64 %12
  %14 = lshr i64 %3, 6
  %15 = and i64 %14, 15
  br label %_ZN4llvm6MDNode6Header8operandsEv.exit

_ZN4llvm6MDNode6Header8operandsEv.exit:           ; preds = %5, %9
  %.sroa.3.0.i = phi i64 [ %15, %9 ], [ %8, %5 ]
  %.sroa.0.0.i = phi ptr [ %13, %9 ], [ %7, %5 ]
  %16 = trunc i64 %1 to i32
  %17 = trunc i64 %.sroa.3.0.i to i32
  %18 = sub nsw i32 %16, %17
  %19 = getelementptr inbounds %"class.llvm::MDOperand", ptr %.sroa.0.0.i, i64 %.sroa.3.0.i
  %20 = icmp sgt i32 %18, 0
  br i1 %20, label %.lr.ph, label %.preheader

.preheader:                                       ; preds = %_ZN4llvm9MDOperand5resetEv.exit, %_ZN4llvm6MDNode6Header8operandsEv.exit
  %.0.lcssa = phi ptr [ %19, %_ZN4llvm6MDNode6Header8operandsEv.exit ], [ %22, %_ZN4llvm9MDOperand5resetEv.exit ]
  %21 = icmp slt i32 %18, 0
  br i1 %21, label %.lr.ph22, label %._crit_edge

.lr.ph:                                           ; preds = %_ZN4llvm6MDNode6Header8operandsEv.exit, %_ZN4llvm9MDOperand5resetEv.exit
  %.019 = phi ptr [ %22, %_ZN4llvm9MDOperand5resetEv.exit ], [ %19, %_ZN4llvm6MDNode6Header8operandsEv.exit ]
  %.01318 = phi i32 [ %25, %_ZN4llvm9MDOperand5resetEv.exit ], [ 0, %_ZN4llvm6MDNode6Header8operandsEv.exit ]
  %22 = getelementptr inbounds i8, ptr %.019, i64 8
  %23 = load ptr, ptr %.019, align 8
  %.not.i.i = icmp eq ptr %23, null
  br i1 %.not.i.i, label %_ZN4llvm9MDOperand5resetEv.exit, label %24

24:                                               ; preds = %.lr.ph
  tail call void @_ZN4llvm16MetadataTracking7untrackEPvRNS_8MetadataE(ptr noundef nonnull %.019, ptr noundef nonnull align 4 dereferenceable(8) %23)
  br label %_ZN4llvm9MDOperand5resetEv.exit

_ZN4llvm9MDOperand5resetEv.exit:                  ; preds = %.lr.ph, %24
  store ptr null, ptr %.019, align 8
  %25 = add nuw nsw i32 %.01318, 1
  %exitcond.not = icmp eq i32 %25, %18
  br i1 %exitcond.not, label %.preheader, label %.lr.ph, !llvm.loop !194

.lr.ph22:                                         ; preds = %.preheader, %_ZN4llvm9MDOperand5resetEv.exit16
  %.121 = phi ptr [ %26, %_ZN4llvm9MDOperand5resetEv.exit16 ], [ %.0.lcssa, %.preheader ]
  %.01220 = phi i32 [ %29, %_ZN4llvm9MDOperand5resetEv.exit16 ], [ 0, %.preheader ]
  %26 = getelementptr inbounds i8, ptr %.121, i64 -8
  %27 = load ptr, ptr %26, align 8
  %.not.i.i15 = icmp eq ptr %27, null
  br i1 %.not.i.i15, label %_ZN4llvm9MDOperand5resetEv.exit16, label %28

28:                                               ; preds = %.lr.ph22
  tail call void @_ZN4llvm16MetadataTracking7untrackEPvRNS_8MetadataE(ptr noundef nonnull %26, ptr noundef nonnull align 4 dereferenceable(8) %27)
  br label %_ZN4llvm9MDOperand5resetEv.exit16

_ZN4llvm9MDOperand5resetEv.exit16:                ; preds = %.lr.ph22, %28
  store ptr null, ptr %26, align 8
  %29 = add nsw i32 %.01220, -1
  %30 = icmp sgt i32 %29, %18
  br i1 %30, label %.lr.ph22, label %._crit_edge, !llvm.loop !195

._crit_edge:                                      ; preds = %_ZN4llvm9MDOperand5resetEv.exit16, %.preheader
  %31 = load i64, ptr %0, align 8
  %32 = shl i64 %1, 6
  %33 = and i64 %32, 960
  %34 = and i64 %31, -961
  %35 = or disjoint i64 %34, %33
  store i64 %35, ptr %0, align 8
  ret void
}